; Function Attrs: alwaysinline norecurse nounwind uwtable
define internal void @_ZN8LightGBM8Metadata16CheckOrPartitionEiRKSt6vectorIiSaIiEE.omp_outlined.22(ptr noalias noundef readonly captures(none) %0, ptr noalias readnone captures(none) %1, ptr noundef nonnull readonly align 4 captures(none) dereferenceable(4) %2, ptr noundef readonly captures(none) %3, ptr noundef nonnull readonly align 4 captures(none) dereferenceable(4) %4, ptr noundef nonnull readonly align 8 captures(none) dereferenceable(24) %5, ptr noundef nonnull readonly align 8 captures(none) dereferenceable(24) %6) #21 {
  %8 = alloca i32, align 4
  %9 = alloca i32, align 4
  %10 = alloca i32, align 4
  %11 = alloca i32, align 4
  %12 = load i32, ptr %2, align 4, !tbaa !59
  %13 = icmp sgt i32 %12, 0
  br i1 %13, label %14, label %49

14:                                               ; preds = %7
  %15 = add nsw i32 %12, -1
  call void @llvm.lifetime.start.p0(i64 4, ptr nonnull %8) #20
  store i32 0, ptr %8, align 4, !tbaa !59
  call void @llvm.lifetime.start.p0(i64 4, ptr nonnull %9) #20
  store i32 %15, ptr %9, align 4, !tbaa !59
  call void @llvm.lifetime.start.p0(i64 4, ptr nonnull %10) #20
  store i32 1, ptr %10, align 4, !tbaa !59
  call void @llvm.lifetime.start.p0(i64 4, ptr nonnull %11) #20
  store i32 0, ptr %11, align 4, !tbaa !59
  %16 = load i32, ptr %0, align 4, !tbaa !59
  call void @__kmpc_for_static_init_4(ptr nonnull @1, i32 %16, i32 34, ptr nonnull %11, ptr nonnull %8, ptr nonnull %9, ptr nonnull %10, i32 1, i32 1)
  %17 = load i32, ptr %9, align 4, !tbaa !59
  %18 = call i32 @llvm.smin.i32(i32 %17, i32 %15)
  store i32 %18, ptr %9, align 4, !tbaa !59
  %19 = load i32, ptr %8, align 4, !tbaa !59
  %.not26 = icmp sgt i32 %19, %18
  br i1 %.not26, label %._crit_edge30, label %.lr.ph29

.lr.ph29:                                         ; preds = %14
  %20 = getelementptr inbounds nuw i8, ptr %3, i64 32
  %21 = load i32, ptr %20, align 8, !tbaa !40
  %22 = sext i32 %21 to i64
  %23 = load i32, ptr %4, align 4, !tbaa !59
  %24 = sext i32 %23 to i64
  %25 = getelementptr inbounds nuw i8, ptr %5, i64 8
  %26 = load ptr, ptr %25, align 8, !tbaa !61
  %27 = load ptr, ptr %5, align 8, !tbaa !60
  %.not31 = icmp eq ptr %26, %27
  %28 = load ptr, ptr %6, align 8
  br i1 %.not31, label %._crit_edge30, label %.lr.ph29.split.us

.lr.ph29.split.us:                                ; preds = %.lr.ph29
  %29 = ptrtoint ptr %26 to i64
  %30 = ptrtoint ptr %27 to i64
  %31 = sub i64 %29, %30
  %32 = ashr exact i64 %31, 2
  %33 = getelementptr inbounds nuw i8, ptr %3, i64 208
  %34 = load ptr, ptr %33, align 8, !tbaa !95
  %umax = call i64 @llvm.umax.i64(i64 %32, i64 1)
  %35 = sext i32 %19 to i64
  %36 = add nsw i32 %18, 1
  br label %.lr.ph.us

.lr.ph.us:                                        ; preds = %._crit_edge.us, %.lr.ph29.split.us
  %indvars.iv = phi i64 [ %indvars.iv.next, %._crit_edge.us ], [ %35, %.lr.ph29.split.us ]
  %37 = mul nsw i64 %indvars.iv, %22
  %38 = mul nsw i64 %indvars.iv, %24
  %39 = getelementptr double, ptr %28, i64 %38
  %40 = getelementptr double, ptr %34, i64 %37
  br label %41

41:                                               ; preds = %.lr.ph.us, %41
  %.025.us = phi i64 [ 0, %.lr.ph.us ], [ %48, %41 ]
  %42 = getelementptr inbounds nuw i32, ptr %27, i64 %.025.us
  %43 = load i32, ptr %42, align 4, !tbaa !59
  %44 = sext i32 %43 to i64
  %45 = getelementptr double, ptr %39, i64 %44
  %46 = load double, ptr %45, align 8, !tbaa !93
  %47 = getelementptr double, ptr %40, i64 %.025.us
  store double %46, ptr %47, align 8, !tbaa !93
  %48 = add nuw i64 %.025.us, 1
  %exitcond.not = icmp eq i64 %48, %umax
  br i1 %exitcond.not, label %._crit_edge.us, label %41, !llvm.loop !125

._crit_edge.us:                                   ; preds = %41
  %indvars.iv.next = add nsw i64 %indvars.iv, 1
  %lftr.wideiv = trunc i64 %indvars.iv.next to i32
  %exitcond34.not = icmp eq i32 %36, %lftr.wideiv
  br i1 %exitcond34.not, label %._crit_edge30, label %.lr.ph.us

._crit_edge30:                                    ; preds = %._crit_edge.us, %.lr.ph29, %14
  call void @__kmpc_for_static_fini(ptr nonnull @1, i32 %16)
  call void @llvm.lifetime.end.p0(i64 4, ptr nonnull %11) #20
  call void @llvm.lifetime.end.p0(i64 4, ptr nonnull %10) #20
  call void @llvm.lifetime.end.p0(i64 4, ptr nonnull %9) #20
  call void @llvm.lifetime.end.p0(i64 4, ptr nonnull %8) #20
  br label %49

49:                                               ; preds = %._crit_edge30, %7
  ret void
}